; Function Attrs: nounwind uwtable
define internal void @scroll_y_anim(ptr noundef %0, i32 noundef %1) #0 {
  %3 = getelementptr inbounds nuw i8, ptr %0, i64 16
  %4 = load ptr, ptr %3, align 8, !tbaa !3
  %5 = icmp eq ptr %4, null
  br i1 %5, label %lv_obj_get_scroll_y.exit, label %6

6:                                                ; preds = %2
  %7 = getelementptr inbounds nuw i8, ptr %4, i64 52
  %8 = load i32, ptr %7, align 4, !tbaa !17
  %9 = sub nsw i32 0, %8
  br label %lv_obj_get_scroll_y.exit

lv_obj_get_scroll_y.exit:                         ; preds = %2, %6
  %.0.i = phi i32 [ %9, %6 ], [ 0, %2 ]
  %10 = add nsw i32 %.0.i, %1
  %or.cond.i = icmp eq i32 %10, 0
  br i1 %or.cond.i, label %lv_obj_scroll_by_raw.exit, label %11

11:                                               ; preds = %lv_obj_get_scroll_y.exit
  tail call void @lv_obj_allocate_spec_attr(ptr noundef nonnull %0) #5
  %12 = load ptr, ptr %3, align 8, !tbaa !3
  %13 = getelementptr inbounds nuw i8, ptr %12, i64 52
  %14 = load i32, ptr %13, align 4, !tbaa !17
  %15 = add nsw i32 %14, %10
  store i32 %15, ptr %13, align 4, !tbaa !17
  tail call void @lv_obj_move_children_by(ptr noundef nonnull %0, i32 noundef 0, i32 noundef %10, i1 noundef zeroext true) #5
  %16 = tail call i32 @lv_obj_send_event(ptr noundef nonnull %0, i32 noundef 15, ptr noundef null) #5
  %.not.i = icmp eq i32 %16, 1
  br i1 %.not.i, label %17, label %lv_obj_scroll_by_raw.exit

17:                                               ; preds = %11
  tail call void @lv_obj_invalidate(ptr noundef nonnull %0) #5
  br label %lv_obj_scroll_by_raw.exit

lv_obj_scroll_by_raw.exit:                        ; preds = %lv_obj_get_scroll_y.exit, %11, %17
  ret void
}